; ModuleID = '17/1318.c'
source_filename = "17/1318.c"
target datalayout = "e-m:e-p270:32:32-p271:32:32-p272:64:64-i64:64-f80:128-n8:16:32:64-S128"
target triple = "x86_64-pc-linux-gnu"

@.str = private unnamed_addr constant [3 x i8] c"%d\00", align 1
@.str.1 = private unnamed_addr constant [3 x i8] c"%s\00", align 1
@.str.2 = private unnamed_addr constant [3 x i8] c"%c\00", align 1
@.str.3 = private unnamed_addr constant [2 x i8] c"\0A\00", align 1

; Function Attrs: noinline nounwind uwtable
define dso_local i32 @main(i32 %0, i8** %1) #0 {
  %3 = alloca i32, align 4
  %4 = alloca i32, align 4
  %5 = alloca i8**, align 8
  %6 = alloca i32, align 4
  %7 = alloca i32, align 4
  %8 = alloca i32, align 4
  %9 = alloca i32, align 4
  %10 = alloca i32, align 4
  %11 = alloca i32, align 4
  %12 = alloca i32, align 4
  %13 = alloca [110 x i8], align 16
  %14 = alloca [110 x i8], align 16
  store i32 0, i32* %3, align 4
  store i32 %0, i32* %4, align 4
  store i8** %1, i8*** %5, align 8
  %15 = bitcast [110 x i8]* %14 to i8*
  call void @llvm.memset.p0i8.i64(i8* align 16 %15, i8 0, i64 110, i1 false)
  %16 = bitcast i8* %15 to <{ i8, [109 x i8] }>*
  %17 = getelementptr inbounds <{ i8, [109 x i8] }>, <{ i8, [109 x i8] }>* %16, i32 0, i32 0
  store i8 32, i8* %17, align 16
  %18 = call i32 (i8*, ...) @__isoc99_scanf(i8* getelementptr inbounds ([3 x i8], [3 x i8]* @.str, i64 0, i64 0), i32* %6)
  store i32 1, i32* %10, align 4
  br label %19

19:                                               ; preds = %158, %2
  %20 = load i32, i32* %10, align 4
  %21 = load i32, i32* %6, align 4
  %22 = icmp sle i32 %20, %21
  br i1 %22, label %23, label %161

23:                                               ; preds = %19
  store i32 0, i32* %11, align 4
  %24 = call i32 (i8*, ...) @__isoc99_scanf(i8* getelementptr inbounds ([3 x i8], [3 x i8]* @.str.1, i64 0, i64 0), [110 x i8]* %13)
  %25 = getelementptr inbounds [110 x i8], [110 x i8]* %13, i64 0, i64 0
  %26 = call i64 @strlen(i8* %25) #4
  %27 = trunc i64 %26 to i32
  store i32 %27, i32* %12, align 4
  store i32 0, i32* %7, align 4
  br label %28

28:                                               ; preds = %77, %23
  %29 = load i32, i32* %7, align 4
  %30 = load i32, i32* %12, align 4
  %31 = sub nsw i32 %30, 1
  %32 = icmp sle i32 %29, %31
  br i1 %32, label %33, label %80

33:                                               ; preds = %28
  %34 = load i32, i32* %7, align 4
  %35 = sext i32 %34 to i64
  %36 = getelementptr inbounds [110 x i8], [110 x i8]* %13, i64 0, i64 %35
  %37 = load i8, i8* %36, align 1
  %38 = sext i8 %37 to i32
  %39 = icmp eq i32 %38, 40
  br i1 %39, label %40, label %46

40:                                               ; preds = %33
  %41 = load i32, i32* %11, align 4
  %42 = add nsw i32 %41, 1
  store i32 %42, i32* %11, align 4
  %43 = load i32, i32* %7, align 4
  %44 = sext i32 %43 to i64
  %45 = getelementptr inbounds [110 x i8], [110 x i8]* %14, i64 0, i64 %44
  store i8 32, i8* %45, align 1
  br label %77

46:                                               ; preds = %33
  %47 = load i32, i32* %7, align 4
  %48 = sext i32 %47 to i64
  %49 = getelementptr inbounds [110 x i8], [110 x i8]* %13, i64 0, i64 %48
  %50 = load i8, i8* %49, align 1
  %51 = sext i8 %50 to i32
  %52 = icmp eq i32 %51, 41
  br i1 %52, label %53, label %71

53:                                               ; preds = %46
  %54 = load i32, i32* %11, align 4
  %55 = icmp sgt i32 %54, 0
  br i1 %55, label %56, label %62

56:                                               ; preds = %53
  %57 = load i32, i32* %11, align 4
  %58 = sub nsw i32 %57, 1
  store i32 %58, i32* %11, align 4
  %59 = load i32, i32* %7, align 4
  %60 = sext i32 %59 to i64
  %61 = getelementptr inbounds [110 x i8], [110 x i8]* %14, i64 0, i64 %60
  store i8 32, i8* %61, align 1
  br label %77

62:                                               ; preds = %53
  %63 = load i32, i32* %11, align 4
  %64 = icmp eq i32 %63, 0
  br i1 %64, label %65, label %69

65:                                               ; preds = %62
  %66 = load i32, i32* %7, align 4
  %67 = sext i32 %66 to i64
  %68 = getelementptr inbounds [110 x i8], [110 x i8]* %14, i64 0, i64 %67
  store i8 63, i8* %68, align 1
  br label %69

69:                                               ; preds = %65, %62
  br label %70

70:                                               ; preds = %69
  br label %77

71:                                               ; preds = %46
  %72 = load i32, i32* %7, align 4
  %73 = sext i32 %72 to i64
  %74 = getelementptr inbounds [110 x i8], [110 x i8]* %14, i64 0, i64 %73
  store i8 32, i8* %74, align 1
  br label %75

75:                                               ; preds = %71
  br label %76

76:                                               ; preds = %75
  br label %77

77:                                               ; preds = %76, %70, %56, %40
  %78 = load i32, i32* %7, align 4
  %79 = add nsw i32 %78, 1
  store i32 %79, i32* %7, align 4
  br label %28

80:                                               ; preds = %28
  store i32 0, i32* %11, align 4
  %81 = load i32, i32* %12, align 4
  %82 = sub nsw i32 %81, 1
  store i32 %82, i32* %7, align 4
  br label %83

83:                                               ; preds = %120, %80
  %84 = load i32, i32* %7, align 4
  %85 = icmp sge i32 %84, 0
  br i1 %85, label %86, label %123

86:                                               ; preds = %83
  %87 = load i32, i32* %7, align 4
  %88 = sext i32 %87 to i64
  %89 = getelementptr inbounds [110 x i8], [110 x i8]* %13, i64 0, i64 %88
  %90 = load i8, i8* %89, align 1
  %91 = sext i8 %90 to i32
  %92 = icmp eq i32 %91, 41
  br i1 %92, label %93, label %96

93:                                               ; preds = %86
  %94 = load i32, i32* %11, align 4
  %95 = add nsw i32 %94, 1
  store i32 %95, i32* %11, align 4
  br label %120

96:                                               ; preds = %86
  %97 = load i32, i32* %7, align 4
  %98 = sext i32 %97 to i64
  %99 = getelementptr inbounds [110 x i8], [110 x i8]* %13, i64 0, i64 %98
  %100 = load i8, i8* %99, align 1
  %101 = sext i8 %100 to i32
  %102 = icmp eq i32 %101, 40
  br i1 %102, label %103, label %118

103:                                              ; preds = %96
  %104 = load i32, i32* %11, align 4
  %105 = icmp sgt i32 %104, 0
  br i1 %105, label %106, label %109

106:                                              ; preds = %103
  %107 = load i32, i32* %11, align 4
  %108 = sub nsw i32 %107, 1
  store i32 %108, i32* %11, align 4
  br label %120

109:                                              ; preds = %103
  %110 = load i32, i32* %11, align 4
  %111 = icmp eq i32 %110, 0
  br i1 %111, label %112, label %116

112:                                              ; preds = %109
  %113 = load i32, i32* %7, align 4
  %114 = sext i32 %113 to i64
  %115 = getelementptr inbounds [110 x i8], [110 x i8]* %14, i64 0, i64 %114
  store i8 36, i8* %115, align 1
  br label %116

116:                                              ; preds = %112, %109
  br label %117

117:                                              ; preds = %116
  br label %120

118:                                              ; preds = %96
  br label %119

119:                                              ; preds = %118
  br label %120

120:                                              ; preds = %119, %117, %106, %93
  %121 = load i32, i32* %7, align 4
  %122 = add nsw i32 %121, -1
  store i32 %122, i32* %7, align 4
  br label %83

123:                                              ; preds = %83
  store i32 0, i32* %9, align 4
  br label %124

124:                                              ; preds = %136, %123
  %125 = load i32, i32* %9, align 4
  %126 = load i32, i32* %12, align 4
  %127 = sub nsw i32 %126, 1
  %128 = icmp sle i32 %125, %127
  br i1 %128, label %129, label %139

129:                                              ; preds = %124
  %130 = load i32, i32* %9, align 4
  %131 = sext i32 %130 to i64
  %132 = getelementptr inbounds [110 x i8], [110 x i8]* %13, i64 0, i64 %131
  %133 = load i8, i8* %132, align 1
  %134 = sext i8 %133 to i32
  %135 = call i32 (i8*, ...) @printf(i8* getelementptr inbounds ([3 x i8], [3 x i8]* @.str.2, i64 0, i64 0), i32 %134)
  br label %136

136:                                              ; preds = %129
  %137 = load i32, i32* %9, align 4
  %138 = add nsw i32 %137, 1
  store i32 %138, i32* %9, align 4
  br label %124

139:                                              ; preds = %124
  %140 = call i32 (i8*, ...) @printf(i8* getelementptr inbounds ([2 x i8], [2 x i8]* @.str.3, i64 0, i64 0))
  store i32 0, i32* %9, align 4
  br label %141

141:                                              ; preds = %153, %139
  %142 = load i32, i32* %9, align 4
  %143 = load i32, i32* %12, align 4
  %144 = sub nsw i32 %143, 1
  %145 = icmp sle i32 %142, %144
  br i1 %145, label %146, label %156

146:                                              ; preds = %141
  %147 = load i32, i32* %9, align 4
  %148 = sext i32 %147 to i64
  %149 = getelementptr inbounds [110 x i8], [110 x i8]* %14, i64 0, i64 %148
  %150 = load i8, i8* %149, align 1
  %151 = sext i8 %150 to i32
  %152 = call i32 (i8*, ...) @printf(i8* getelementptr inbounds ([3 x i8], [3 x i8]* @.str.2, i64 0, i64 0), i32 %151)
  br label %153

153:                                              ; preds = %146
  %154 = load i32, i32* %9, align 4
  %155 = add nsw i32 %154, 1
  store i32 %155, i32* %9, align 4
  br label %141

156:                                              ; preds = %141
  %157 = call i32 (i8*, ...) @printf(i8* getelementptr inbounds ([2 x i8], [2 x i8]* @.str.3, i64 0, i64 0))
  br label %158

158:                                              ; preds = %156
  %159 = load i32, i32* %10, align 4
  %160 = add nsw i32 %159, 1
  store i32 %160, i32* %10, align 4
  br label %19

161:                                              ; preds = %19
  ret i32 0
}

; Function Attrs: argmemonly nounwind willreturn
declare void @llvm.memset.p0i8.i64(i8* nocapture writeonly, i8, i64, i1 immarg) #1

declare dso_local i32 @__isoc99_scanf(i8*, ...) #2

; Function Attrs: nounwind readonly
declare dso_local i64 @strlen(i8*) #3

declare dso_local i32 @printf(i8*, ...) #2


!llvm.module.flags = !{!0}
!llvm.ident = !{!1}

!0 = !{i32 1, !"wchar_size", i32 4}
!1 = !{!"clang version 10.0.0-4ubuntu1 "}
